libkyotocabinet.so.16:_ZN12kyotocabinet10SpinRWLock11lock_readerEv
libkyotocabinet.so.16:_ZN12kyotocabinet10SpinRWLock11lock_writerEv
libkyotocabinet.so.16:_ZN12kyotocabinet10SpinRWLock15lock_reader_tryEv
libkyotocabinet.so.16:_ZN12kyotocabinet10SpinRWLock15lock_writer_tryEv
libkyotocabinet.so.16:_ZN12kyotocabinet10SpinRWLock6demoteEv
libkyotocabinet.so.16:_ZN12kyotocabinet10SpinRWLock6unlockEv
libkyotocabinet.so.16:_ZN12kyotocabinet10SpinRWLock7promoteEv
libkyotocabinet.so.16:_ZN12kyotocabinet10SpinRWLockC1Ev
libkyotocabinet.so.16:_ZN12kyotocabinet10SpinRWLockC2Ev
libkyotocabinet.so.16:_ZN12kyotocabinet10SpinRWLockD1Ev
libkyotocabinet.so.16:_ZN12kyotocabinet10SpinRWLockD2Ev
libkyotocabinet.so.16:_ZN12kyotocabinet10getsysinfoEPSt3mapINSt7__cxx1112basic_stringIcSt11char_traitsIcESaIcEEES6_St4lessIS6_ESaISt4pairIKS6_S6_EEE
libkyotocabinet.so.16:_ZN12kyotocabinet10strucsdistEPKjmS1_m
libkyotocabinet.so.16:_ZN12kyotocabinet10strutfdistEPKcS1_
libkyotocabinet.so.16:_ZN12kyotocabinet11AtomicInt643addEl
libkyotocabinet.so.16:_ZN12kyotocabinet11AtomicInt643casEll
libkyotocabinet.so.16:_ZN12kyotocabinet11AtomicInt643setEl
libkyotocabinet.so.16:_ZN12kyotocabinet11setstdiobinEv
libkyotocabinet.so.16:_ZN12kyotocabinet12SlottedMutex10unlock_allEv
libkyotocabinet.so.16:_ZN12kyotocabinet12SlottedMutex4lockEm
libkyotocabinet.so.16:_ZN12kyotocabinet12SlottedMutex6unlockEm
libkyotocabinet.so.16:_ZN12kyotocabinet12SlottedMutex8lock_allEv
libkyotocabinet.so.16:_ZN12kyotocabinet12SlottedMutexC1Em
libkyotocabinet.so.16:_ZN12kyotocabinet12SlottedMutexC2Em
libkyotocabinet.so.16:_ZN12kyotocabinet12SlottedMutexD1Ev
libkyotocabinet.so.16:_ZN12kyotocabinet12SlottedMutexD2Ev
libkyotocabinet.so.16:_ZN12kyotocabinet13SlottedRWLock10unlock_allEv
libkyotocabinet.so.16:_ZN12kyotocabinet13SlottedRWLock11lock_readerEm
libkyotocabinet.so.16:_ZN12kyotocabinet13SlottedRWLock11lock_writerEm
libkyotocabinet.so.16:_ZN12kyotocabinet13SlottedRWLock15lock_reader_allEv
libkyotocabinet.so.16:_ZN12kyotocabinet13SlottedRWLock15lock_writer_allEv
libkyotocabinet.so.16:_ZN12kyotocabinet13SlottedRWLock6unlockEm
libkyotocabinet.so.16:_ZN12kyotocabinet13SlottedRWLockC1Em
libkyotocabinet.so.16:_ZN12kyotocabinet13SlottedRWLockC2Em
libkyotocabinet.so.16:_ZN12kyotocabinet13SlottedRWLockD1Ev
libkyotocabinet.so.16:_ZN12kyotocabinet13SlottedRWLockD2Ev
libkyotocabinet.so.16:_ZN12kyotocabinet15SlottedSpinLock10unlock_allEv
libkyotocabinet.so.16:_ZN12kyotocabinet15SlottedSpinLock4lockEm
libkyotocabinet.so.16:_ZN12kyotocabinet15SlottedSpinLock6unlockEm
libkyotocabinet.so.16:_ZN12kyotocabinet15SlottedSpinLock8lock_allEv
libkyotocabinet.so.16:_ZN12kyotocabinet15SlottedSpinLockC1Em
libkyotocabinet.so.16:_ZN12kyotocabinet15SlottedSpinLockC2Em
libkyotocabinet.so.16:_ZN12kyotocabinet15SlottedSpinLockD1Ev
libkyotocabinet.so.16:_ZN12kyotocabinet15SlottedSpinLockD2Ev
libkyotocabinet.so.16:_ZN12kyotocabinet17SlottedSpinRWLock10unlock_allEv
libkyotocabinet.so.16:_ZN12kyotocabinet17SlottedSpinRWLock11lock_readerEm
libkyotocabinet.so.16:_ZN12kyotocabinet17SlottedSpinRWLock11lock_writerEm
libkyotocabinet.so.16:_ZN12kyotocabinet17SlottedSpinRWLock15lock_reader_allEv
libkyotocabinet.so.16:_ZN12kyotocabinet17SlottedSpinRWLock15lock_writer_allEv
libkyotocabinet.so.16:_ZN12kyotocabinet17SlottedSpinRWLock6unlockEm
libkyotocabinet.so.16:_ZN12kyotocabinet17SlottedSpinRWLockC1Em
libkyotocabinet.so.16:_ZN12kyotocabinet17SlottedSpinRWLockC2Em
libkyotocabinet.so.16:_ZN12kyotocabinet17SlottedSpinRWLockD1Ev
libkyotocabinet.so.16:_ZN12kyotocabinet17SlottedSpinRWLockD2Ev
libkyotocabinet.so.16:_ZN12kyotocabinet3LZO10decompressEPKvmPmNS0_4ModeE
libkyotocabinet.so.16:_ZN12kyotocabinet3LZO13calculate_crcEPKvmj
libkyotocabinet.so.16:_ZN12kyotocabinet3LZO8compressEPKvmPmNS0_4ModeE
libkyotocabinet.so.16:_ZN12kyotocabinet4File10write_fastElPKvm
libkyotocabinet.so.16:_ZN12kyotocabinet4File10write_fileERKNSt7__cxx1112basic_stringIcSt11char_traitsIcESaIcEEEPKcl
libkyotocabinet.so.16:_ZN12kyotocabinet4File11synchronizeEb
libkyotocabinet.so.16:_ZN12kyotocabinet4File13absolute_pathERKNSt7__cxx1112basic_stringIcSt11char_traitsIcESaIcEEE
libkyotocabinet.so.16:_ZN12kyotocabinet4File14make_directoryERKNSt7__cxx1112basic_stringIcSt11char_traitsIcESaIcEEE
libkyotocabinet.so.16:_ZN12kyotocabinet4File14read_directoryERKNSt7__cxx1112basic_stringIcSt11char_traitsIcESaIcEEEPSt6vectorIS6_SaIS6_EE
libkyotocabinet.so.16:_ZN12kyotocabinet4File15end_transactionEb
libkyotocabinet.so.16:_ZN12kyotocabinet4File16remove_directoryERKNSt7__cxx1112basic_stringIcSt11char_traitsIcESaIcEEE
libkyotocabinet.so.16:_ZN12kyotocabinet4File17begin_transactionEbl
libkyotocabinet.so.16:_ZN12kyotocabinet4File17synchronize_wholeEv
libkyotocabinet.so.16:_ZN12kyotocabinet4File17write_transactionElm
libkyotocabinet.so.16:_ZN12kyotocabinet4File18remove_recursivelyERKNSt7__cxx1112basic_stringIcSt11char_traitsIcESaIcEEE
libkyotocabinet.so.16:_ZN12kyotocabinet4File21get_current_directoryB5cxx11Ev
libkyotocabinet.so.16:_ZN12kyotocabinet4File21set_current_directoryERKNSt7__cxx1112basic_stringIcSt11char_traitsIcESaIcEEE
libkyotocabinet.so.16:_ZN12kyotocabinet4File4openERKNSt7__cxx1112basic_stringIcSt11char_traitsIcESaIcEEEjl
libkyotocabinet.so.16:_ZN12kyotocabinet4File4readElPvm
libkyotocabinet.so.16:_ZN12kyotocabinet4File5closeEv
libkyotocabinet.so.16:_ZN12kyotocabinet4File5writeElPKvm
libkyotocabinet.so.16:_ZN12kyotocabinet4File6appendEPKvm
libkyotocabinet.so.16:_ZN12kyotocabinet4File6removeERKNSt7__cxx1112basic_stringIcSt11char_traitsIcESaIcEEE
libkyotocabinet.so.16:_ZN12kyotocabinet4File6renameERKNSt7__cxx1112basic_stringIcSt11char_traitsIcESaIcEEES8_
libkyotocabinet.so.16:_ZN12kyotocabinet4File6statusERKNSt7__cxx1112basic_stringIcSt11char_traitsIcESaIcEEEPNS0_6StatusE
libkyotocabinet.so.16:_ZN12kyotocabinet4File7refreshEv
libkyotocabinet.so.16:_ZN12kyotocabinet4File8truncateEl
libkyotocabinet.so.16:_ZN12kyotocabinet4File9read_fastElPvm
libkyotocabinet.so.16:_ZN12kyotocabinet4File9read_fileERKNSt7__cxx1112basic_stringIcSt11char_traitsIcESaIcEEEPll
libkyotocabinet.so.16:_ZN12kyotocabinet4FileC1Ev
libkyotocabinet.so.16:_ZN12kyotocabinet4FileC2Ev
libkyotocabinet.so.16:_ZN12kyotocabinet4FileD1Ev
libkyotocabinet.so.16:_ZN12kyotocabinet4FileD2Ev
libkyotocabinet.so.16:_ZN12kyotocabinet4LZMA10decompressEPKvmPmNS0_4ModeE
libkyotocabinet.so.16:_ZN12kyotocabinet4LZMA13calculate_crcEPKvmj
libkyotocabinet.so.16:_ZN12kyotocabinet4LZMA8compressEPKvmPmNS0_4ModeE
libkyotocabinet.so.16:_ZN12kyotocabinet4ZLIB10decompressEPKvmPmNS0_4ModeE
libkyotocabinet.so.16:_ZN12kyotocabinet4ZLIB13calculate_crcEPKvmj
libkyotocabinet.so.16:_ZN12kyotocabinet4ZLIB8compressEPKvmPmNS0_4ModeE
libkyotocabinet.so.16:_ZN12kyotocabinet4timeEv
libkyotocabinet.so.16:_ZN12kyotocabinet5Mutex4lockEv
libkyotocabinet.so.16:_ZN12kyotocabinet5Mutex6unlockEv
libkyotocabinet.so.16:_ZN12kyotocabinet5Mutex8lock_tryEd
libkyotocabinet.so.16:_ZN12kyotocabinet5Mutex8lock_tryEv
libkyotocabinet.so.16:_ZN12kyotocabinet5MutexC1ENS0_4TypeE
libkyotocabinet.so.16:_ZN12kyotocabinet5MutexC1Ev
libkyotocabinet.so.16:_ZN12kyotocabinet5MutexC2ENS0_4TypeE
libkyotocabinet.so.16:_ZN12kyotocabinet5MutexC2Ev
libkyotocabinet.so.16:_ZN12kyotocabinet5MutexD1Ev
libkyotocabinet.so.16:_ZN12kyotocabinet5MutexD2Ev
libkyotocabinet.so.16:_ZN12kyotocabinet5Regex5matchERKNSt7__cxx1112basic_stringIcSt11char_traitsIcESaIcEEE
libkyotocabinet.so.16:_ZN12kyotocabinet5Regex7compileERKNSt7__cxx1112basic_stringIcSt11char_traitsIcESaIcEEEj
libkyotocabinet.so.16:_ZN12kyotocabinet5Regex7replaceERKNSt7__cxx1112basic_stringIcSt11char_traitsIcESaIcEEES8_
libkyotocabinet.so.16:_ZN12kyotocabinet5RegexC1Ev
libkyotocabinet.so.16:_ZN12kyotocabinet5RegexC2Ev
libkyotocabinet.so.16:_ZN12kyotocabinet5RegexD1Ev
libkyotocabinet.so.16:_ZN12kyotocabinet5RegexD2Ev
libkyotocabinet.so.16:_ZN12kyotocabinet6RWLock11lock_readerEv
libkyotocabinet.so.16:_ZN12kyotocabinet6RWLock11lock_writerEv
libkyotocabinet.so.16:_ZN12kyotocabinet6RWLock15lock_reader_tryEv
libkyotocabinet.so.16:_ZN12kyotocabinet6RWLock15lock_writer_tryEv
libkyotocabinet.so.16:_ZN12kyotocabinet6RWLock6unlockEv
libkyotocabinet.so.16:_ZN12kyotocabinet6RWLockC1Ev
libkyotocabinet.so.16:_ZN12kyotocabinet6RWLockC2Ev
libkyotocabinet.so.16:_ZN12kyotocabinet6RWLockD1Ev
libkyotocabinet.so.16:_ZN12kyotocabinet6RWLockD2Ev
libkyotocabinet.so.16:_ZN12kyotocabinet6TSDKey3setEPv
libkyotocabinet.so.16:_ZN12kyotocabinet6TSDKeyC1EPFvPvE
libkyotocabinet.so.16:_ZN12kyotocabinet6TSDKeyC1Ev
libkyotocabinet.so.16:_ZN12kyotocabinet6TSDKeyC2EPFvPvE
libkyotocabinet.so.16:_ZN12kyotocabinet6TSDKeyC2Ev
libkyotocabinet.so.16:_ZN12kyotocabinet6TSDKeyD1Ev
libkyotocabinet.so.16:_ZN12kyotocabinet6TSDKeyD2Ev
libkyotocabinet.so.16:_ZN12kyotocabinet6Thread4exitEv
libkyotocabinet.so.16:_ZN12kyotocabinet6Thread4hashEv
libkyotocabinet.so.16:_ZN12kyotocabinet6Thread4joinEv
libkyotocabinet.so.16:_ZN12kyotocabinet6Thread5chillEv
libkyotocabinet.so.16:_ZN12kyotocabinet6Thread5sleepEd
libkyotocabinet.so.16:_ZN12kyotocabinet6Thread5startEv
libkyotocabinet.so.16:_ZN12kyotocabinet6Thread5yieldEv
libkyotocabinet.so.16:_ZN12kyotocabinet6Thread6detachEv
libkyotocabinet.so.16:_ZN12kyotocabinet6ThreadC1Ev
libkyotocabinet.so.16:_ZN12kyotocabinet6ThreadC2Ev
libkyotocabinet.so.16:_ZN12kyotocabinet6ThreadD0Ev
libkyotocabinet.so.16:_ZN12kyotocabinet6ThreadD1Ev
libkyotocabinet.so.16:_ZN12kyotocabinet6ThreadD2Ev
libkyotocabinet.so.16:_ZN12kyotocabinet6getenvEPKc
libkyotocabinet.so.16:_ZN12kyotocabinet6getpidEv
libkyotocabinet.so.16:_ZN12kyotocabinet7CondVar4waitEPNS_5MutexE
libkyotocabinet.so.16:_ZN12kyotocabinet7CondVar4waitEPNS_5MutexEd
libkyotocabinet.so.16:_ZN12kyotocabinet7CondVar6signalEv
libkyotocabinet.so.16:_ZN12kyotocabinet7CondVar9broadcastEv
libkyotocabinet.so.16:_ZN12kyotocabinet7CondVarC1Ev
libkyotocabinet.so.16:_ZN12kyotocabinet7CondVarC2Ev
libkyotocabinet.so.16:_ZN12kyotocabinet7CondVarD1Ev
libkyotocabinet.so.16:_ZN12kyotocabinet7CondVarD2Ev
libkyotocabinet.so.16:_ZN12kyotocabinet7mapfreeEPv
libkyotocabinet.so.16:_ZN12kyotocabinet7memdistEPKvmS1_m
libkyotocabinet.so.16:_ZN12kyotocabinet8SpinLock4lockEv
libkyotocabinet.so.16:_ZN12kyotocabinet8SpinLock6unlockEv
libkyotocabinet.so.16:_ZN12kyotocabinet8SpinLock8lock_tryEv
libkyotocabinet.so.16:_ZN12kyotocabinet8SpinLockC1Ev
libkyotocabinet.so.16:_ZN12kyotocabinet8SpinLockC2Ev
libkyotocabinet.so.16:_ZN12kyotocabinet8SpinLockD1Ev
libkyotocabinet.so.16:_ZN12kyotocabinet8SpinLockD2Ev
libkyotocabinet.so.16:_ZN12kyotocabinet8mapallocEm
libkyotocabinet.so.16:_ZN12kyotocabinet9DirStream4openERKNSt7__cxx1112basic_stringIcSt11char_traitsIcESaIcEEE
libkyotocabinet.so.16:_ZN12kyotocabinet9DirStream4readEPNSt7__cxx1112basic_stringIcSt11char_traitsIcESaIcEEE
libkyotocabinet.so.16:_ZN12kyotocabinet9DirStream5closeEv
libkyotocabinet.so.16:_ZN12kyotocabinet9DirStreamC1Ev
libkyotocabinet.so.16:_ZN12kyotocabinet9DirStreamC2Ev
libkyotocabinet.so.16:_ZN12kyotocabinet9DirStreamD1Ev
libkyotocabinet.so.16:_ZN12kyotocabinet9DirStreamD2Ev
libkyotocabinet.so.16:_ZNK12kyotocabinet11AtomicInt643getEv
libkyotocabinet.so.16:_ZNK12kyotocabinet4File4pathB5cxx11Ev
libkyotocabinet.so.16:_ZNK12kyotocabinet4File4sizeEv
libkyotocabinet.so.16:_ZNK12kyotocabinet4File5errorEv
libkyotocabinet.so.16:_ZNK12kyotocabinet4File9recoveredEv
libkyotocabinet.so.16:_ZNK12kyotocabinet6TSDKey3getEv
libkyotocabinet.so.16:kcatof
libkyotocabinet.so.16:kcatoi
libkyotocabinet.so.16:kcatoix
libkyotocabinet.so.16:kcchkinf
libkyotocabinet.so.16:kcchknan
libkyotocabinet.so.16:kccuraccept
libkyotocabinet.so.16:kccurdb
libkyotocabinet.so.16:kccurdel
libkyotocabinet.so.16:kccurecode
libkyotocabinet.so.16:kccuremsg
libkyotocabinet.so.16:kccurget
libkyotocabinet.so.16:kccurgetkey
libkyotocabinet.so.16:kccurgetvalue
libkyotocabinet.so.16:kccurjump
libkyotocabinet.so.16:kccurjumpback
libkyotocabinet.so.16:kccurjumpbackkey
libkyotocabinet.so.16:kccurjumpkey
libkyotocabinet.so.16:kccurremove
libkyotocabinet.so.16:kccurseize
libkyotocabinet.so.16:kccursetvalue
libkyotocabinet.so.16:kccurstep
libkyotocabinet.so.16:kccurstepback
libkyotocabinet.so.16:kcdbaccept
libkyotocabinet.so.16:kcdbacceptbulk
libkyotocabinet.so.16:kcdbadd
libkyotocabinet.so.16:kcdbappend
libkyotocabinet.so.16:kcdbbegintran
libkyotocabinet.so.16:kcdbbegintrantry
libkyotocabinet.so.16:kcdbcas
libkyotocabinet.so.16:kcdbcheck
libkyotocabinet.so.16:kcdbclear
libkyotocabinet.so.16:kcdbclose
libkyotocabinet.so.16:kcdbcopy
libkyotocabinet.so.16:kcdbcount
libkyotocabinet.so.16:kcdbcursor
libkyotocabinet.so.16:kcdbdel
libkyotocabinet.so.16:kcdbdumpsnap
libkyotocabinet.so.16:kcdbecode
libkyotocabinet.so.16:kcdbemsg
libkyotocabinet.so.16:kcdbendtran
libkyotocabinet.so.16:kcdbget
libkyotocabinet.so.16:kcdbgetbuf
libkyotocabinet.so.16:kcdbgetbulk
libkyotocabinet.so.16:kcdbincrdouble
libkyotocabinet.so.16:kcdbincrint
libkyotocabinet.so.16:kcdbiterate
libkyotocabinet.so.16:kcdbloadsnap
libkyotocabinet.so.16:kcdbmatchprefix
libkyotocabinet.so.16:kcdbmatchregex
libkyotocabinet.so.16:kcdbmatchsimilar
libkyotocabinet.so.16:kcdbmerge
libkyotocabinet.so.16:kcdbnew
libkyotocabinet.so.16:kcdboccupy
libkyotocabinet.so.16:kcdbopen
libkyotocabinet.so.16:kcdbpath
libkyotocabinet.so.16:kcdbremove
libkyotocabinet.so.16:kcdbremovebulk
libkyotocabinet.so.16:kcdbreplace
libkyotocabinet.so.16:kcdbscanpara
libkyotocabinet.so.16:kcdbseize
libkyotocabinet.so.16:kcdbset
libkyotocabinet.so.16:kcdbsetbulk
libkyotocabinet.so.16:kcdbsize
libkyotocabinet.so.16:kcdbstatus
libkyotocabinet.so.16:kcdbsync
libkyotocabinet.so.16:kcecodename
libkyotocabinet.so.16:kcfree
libkyotocabinet.so.16:kchashfnv
libkyotocabinet.so.16:kchashmurmur
libkyotocabinet.so.16:kcidxadd
libkyotocabinet.so.16:kcidxappend
libkyotocabinet.so.16:kcidxclear
libkyotocabinet.so.16:kcidxclose
libkyotocabinet.so.16:kcidxcount
libkyotocabinet.so.16:kcidxdel
libkyotocabinet.so.16:kcidxecode
libkyotocabinet.so.16:kcidxemsg
libkyotocabinet.so.16:kcidxget
libkyotocabinet.so.16:kcidxnew
libkyotocabinet.so.16:kcidxopen
libkyotocabinet.so.16:kcidxpath
libkyotocabinet.so.16:kcidxremove
libkyotocabinet.so.16:kcidxreplace
libkyotocabinet.so.16:kcidxrevealinnerdb
libkyotocabinet.so.16:kcidxset
libkyotocabinet.so.16:kcidxsize
libkyotocabinet.so.16:kcidxstatus
libkyotocabinet.so.16:kcidxsync
libkyotocabinet.so.16:kcinf
libkyotocabinet.so.16:kclevdist
libkyotocabinet.so.16:kclistclear
libkyotocabinet.so.16:kclistcount
libkyotocabinet.so.16:kclistdel
libkyotocabinet.so.16:kclistget
libkyotocabinet.so.16:kclistinsert
libkyotocabinet.so.16:kclistnew
libkyotocabinet.so.16:kclistpop
libkyotocabinet.so.16:kclistpush
libkyotocabinet.so.16:kclistremove
libkyotocabinet.so.16:kclistshift
libkyotocabinet.so.16:kclistunshift
libkyotocabinet.so.16:kcmalloc
libkyotocabinet.so.16:kcmapadd
libkyotocabinet.so.16:kcmapappend
libkyotocabinet.so.16:kcmapclear
libkyotocabinet.so.16:kcmapcount
libkyotocabinet.so.16:kcmapdel
libkyotocabinet.so.16:kcmapget
libkyotocabinet.so.16:kcmapiterator
libkyotocabinet.so.16:kcmapiterdel
libkyotocabinet.so.16:kcmapiterget
libkyotocabinet.so.16:kcmapitergetkey
libkyotocabinet.so.16:kcmapitergetvalue
libkyotocabinet.so.16:kcmapiterstep
libkyotocabinet.so.16:kcmapnew
libkyotocabinet.so.16:kcmapremove
libkyotocabinet.so.16:kcmapreplace
libkyotocabinet.so.16:kcmapset
libkyotocabinet.so.16:kcmapsortdel
libkyotocabinet.so.16:kcmapsorter
libkyotocabinet.so.16:kcmapsortget
libkyotocabinet.so.16:kcmapsortgetkey
libkyotocabinet.so.16:kcmapsortgetvalue
libkyotocabinet.so.16:kcmapsortstep
libkyotocabinet.so.16:kcnan
libkyotocabinet.so.16:kctime
